target datalayout = "e-m:e-p270:32:32-p271:32:32-p272:64:64-i64:64-i128:128-f80:128-n8:16:32:64-S128"
target triple = "x86_64-pc-linux-gnu"

%struct._GtkDarktableGradientSlider = type { %struct._GtkDrawingArea, ptr, i32, i32, i32, [10 x double], [10 x double], [10 x i32], double, double, [3 x double], i32, i32, i32, i32, i32, i32, i32, i32, i32, ptr }
%struct._GtkDrawingArea = type { %struct._GtkWidget, ptr }
%struct._GtkWidget = type { %struct._GObject, ptr }
%struct._GObject = type { %struct._GTypeInstance, i32, ptr }
%struct._GTypeInstance = type { ptr }

@_gradient_slider_get_type.static_g_define_type_id = internal global i64 0, align 8

; Function Attrs: nounwind uwtable
define i64 @_gradient_slider_get_type() #0 {
  %1 = alloca i32, align 4
  %2 = alloca i64, align 8
  %3 = alloca ptr, align 8
  %4 = alloca i64, align 8
  %5 = alloca i64, align 8
  call void @llvm.lifetime.start.p0(i64 8, ptr %2) #11
  call void @llvm.lifetime.start.p0(i64 8, ptr %3) #11
  store ptr @_gradient_slider_get_type.static_g_define_type_id, ptr %3, align 8, !tbaa !6
  %6 = load ptr, ptr %3, align 8, !tbaa !6
  %7 = load atomic i64, ptr %6 seq_cst, align 8
  store i64 %7, ptr %2, align 8
  %8 = load i64, ptr %2, align 8, !tbaa !11
  store i64 %8, ptr %4, align 8, !tbaa !11
  call void @llvm.lifetime.end.p0(i64 8, ptr %3) #11
  call void @llvm.lifetime.end.p0(i64 8, ptr %2) #11
  %9 = load i64, ptr %4, align 8, !tbaa !11
  %10 = icmp ne i64 %9, 0
  br i1 %10, label %14, label %11

11:                                               ; preds = %0
  %12 = call i32 @g_once_init_enter(ptr noundef @_gradient_slider_get_type.static_g_define_type_id)
  %13 = icmp ne i32 %12, 0
  br label %14

14:                                               ; preds = %11, %0
  %15 = phi i1 [ false, %0 ], [ %13, %11 ]
  %16 = zext i1 %15 to i32
  store i32 %16, ptr %1, align 4, !tbaa !13
  %17 = load i32, ptr %1, align 4, !tbaa !13
  %18 = icmp ne i32 %17, 0
  br i1 %18, label %19, label %22

19:                                               ; preds = %14
  call void @llvm.lifetime.start.p0(i64 8, ptr %5) #11
  %20 = call i64 @_gradient_slider_get_type_once()
  store i64 %20, ptr %5, align 8, !tbaa !11
  %21 = load i64, ptr %5, align 8, !tbaa !11
  call void @g_once_init_leave(ptr noundef @_gradient_slider_get_type.static_g_define_type_id, i64 noundef %21)
  call void @llvm.lifetime.end.p0(i64 8, ptr %5) #11
  br label %22

22:                                               ; preds = %19, %14
  %23 = load i64, ptr @_gradient_slider_get_type.static_g_define_type_id, align 8, !tbaa !11
  ret i64 %23
}

; Function Attrs: nounwind uwtable
define i64 @dtgtk_gradient_slider_get_type() #0 {
  %1 = call i64 @_gradient_slider_get_type()
  ret i64 %1
}

; Function Attrs: inlinehint nounwind uwtable
define internal i32 @_test_if_marker_is_upper_or_down(i32 noundef %0, i32 noundef %1) #8 {
  %3 = alloca i32, align 4
  %4 = alloca i32, align 4
  %5 = alloca i32, align 4
  store i32 %0, ptr %4, align 4, !tbaa !13
  store i32 %1, ptr %5, align 4, !tbaa !13
  %6 = load i32, ptr %5, align 4, !tbaa !13
  %7 = icmp ne i32 %6, 0
  br i1 %7, label %8, label %21

8:                                                ; preds = %2
  %9 = load i32, ptr %4, align 4, !tbaa !13
  %10 = icmp eq i32 %9, 2
  br i1 %10, label %20, label %11

11:                                               ; preds = %8
  %12 = load i32, ptr %4, align 4, !tbaa !13
  %13 = icmp eq i32 %12, 3
  br i1 %13, label %20, label %14

14:                                               ; preds = %11
  %15 = load i32, ptr %4, align 4, !tbaa !13
  %16 = icmp eq i32 %15, 10
  br i1 %16, label %20, label %17

17:                                               ; preds = %14
  %18 = load i32, ptr %4, align 4, !tbaa !13
  %19 = icmp eq i32 %18, 11
  br i1 %19, label %20, label %21

20:                                               ; preds = %17, %14, %11, %8
  store i32 0, ptr %3, align 4
  br label %38

21:                                               ; preds = %17, %2
  %22 = load i32, ptr %5, align 4, !tbaa !13
  %23 = icmp ne i32 %22, 0
  br i1 %23, label %37, label %24

24:                                               ; preds = %21
  %25 = load i32, ptr %4, align 4, !tbaa !13
  %26 = icmp eq i32 %25, 4
  br i1 %26, label %36, label %27

27:                                               ; preds = %24
  %28 = load i32, ptr %4, align 4, !tbaa !13
  %29 = icmp eq i32 %28, 5
  br i1 %29, label %36, label %30

30:                                               ; preds = %27
  %31 = load i32, ptr %4, align 4, !tbaa !13
  %32 = icmp eq i32 %31, 12
  br i1 %32, label %36, label %33

33:                                               ; preds = %30
  %34 = load i32, ptr %4, align 4, !tbaa !13
  %35 = icmp eq i32 %34, 13
  br i1 %35, label %36, label %37

36:                                               ; preds = %33, %30, %27, %24
  store i32 0, ptr %3, align 4
  br label %38

37:                                               ; preds = %33, %21
  store i32 1, ptr %3, align 4
  br label %38

38:                                               ; preds = %37, %36, %20
  %39 = load i32, ptr %3, align 4
  ret i32 %39
}

; Function Attrs: inlinehint nounwind uwtable
define internal ptr @DTGTK_GRADIENT_SLIDER(ptr noundef %0) #8 {
  %2 = alloca ptr, align 8
  store ptr %0, ptr %2, align 8, !tbaa !15
  %3 = load ptr, ptr %2, align 8, !tbaa !15
  %4 = call i64 @dtgtk_gradient_slider_get_type()
  %5 = call ptr @g_type_check_instance_cast(ptr noundef %3, i64 noundef %4)
  ret ptr %5
}

; Function Attrs: nounwind uwtable
define internal i32 @_get_active_marker_internal(ptr noundef %0, double noundef %1, i32 noundef %2) #0 {
  %4 = alloca ptr, align 8
  %5 = alloca double, align 8
  %6 = alloca i32, align 4
  %7 = alloca ptr, align 8
  %8 = alloca i32, align 4
  %9 = alloca double, align 8
  %10 = alloca i32, align 4
  store ptr %0, ptr %4, align 8, !tbaa !54
  store double %1, ptr %5, align 8, !tbaa !45
  store i32 %2, ptr %6, align 4, !tbaa !13
  call void @llvm.lifetime.start.p0(i64 8, ptr %7) #11
  %11 = load ptr, ptr %4, align 8, !tbaa !54
  %12 = call ptr @DTGTK_GRADIENT_SLIDER(ptr noundef %11)
  store ptr %12, ptr %7, align 8, !tbaa !24
  call void @llvm.lifetime.start.p0(i64 4, ptr %8) #11
  store i32 -1, ptr %8, align 4, !tbaa !13
  call void @llvm.lifetime.start.p0(i64 8, ptr %9) #11
  %13 = load ptr, ptr %4, align 8, !tbaa !54
  %14 = load double, ptr %5, align 8, !tbaa !45
  %15 = call reassoc nsz arcp contract afn double @_get_position_from_screen(ptr noundef %13, double noundef %14)
  store double %15, ptr %9, align 8, !tbaa !45
  call void @llvm.lifetime.start.p0(i64 4, ptr %10) #11
  store i32 0, ptr %10, align 4, !tbaa !13
  br label %16

16:                                               ; preds = %62, %3
  %17 = load i32, ptr %10, align 4, !tbaa !13
  %18 = load ptr, ptr %7, align 8, !tbaa !24
  %19 = getelementptr inbounds nuw %struct._GtkDarktableGradientSlider, ptr %18, i32 0, i32 4
  %20 = load i32, ptr %19, align 8, !tbaa !26
  %21 = icmp slt i32 %17, %20
  br i1 %21, label %23, label %22

22:                                               ; preds = %16
  call void @llvm.lifetime.end.p0(i64 4, ptr %10) #11
  br label %65

23:                                               ; preds = %16
  %24 = load ptr, ptr %7, align 8, !tbaa !24
  %25 = getelementptr inbounds nuw %struct._GtkDarktableGradientSlider, ptr %24, i32 0, i32 7
  %26 = load i32, ptr %10, align 4, !tbaa !13
  %27 = sext i32 %26 to i64
  %28 = getelementptr inbounds [10 x i32], ptr %25, i64 0, i64 %27
  %29 = load i32, ptr %28, align 4, !tbaa !13
  %30 = load i32, ptr %6, align 4, !tbaa !13
  %31 = call i32 @_test_if_marker_is_upper_or_down(i32 noundef %29, i32 noundef %30)
  %32 = icmp ne i32 %31, 0
  br i1 %32, label %33, label %61

33:                                               ; preds = %23
  %34 = load i32, ptr %8, align 4, !tbaa !13
  %35 = icmp slt i32 %34, 0
  br i1 %35, label %36, label %38

36:                                               ; preds = %33
  %37 = load i32, ptr %10, align 4, !tbaa !13
  store i32 %37, ptr %8, align 4, !tbaa !13
  br label %38

38:                                               ; preds = %36, %33
  %39 = load double, ptr %9, align 8, !tbaa !45
  %40 = load ptr, ptr %7, align 8, !tbaa !24
  %41 = getelementptr inbounds nuw %struct._GtkDarktableGradientSlider, ptr %40, i32 0, i32 5
  %42 = load i32, ptr %10, align 4, !tbaa !13
  %43 = sext i32 %42 to i64
  %44 = getelementptr inbounds [10 x double], ptr %41, i64 0, i64 %43
  %45 = load double, ptr %44, align 8, !tbaa !45
  %46 = fsub reassoc nsz arcp contract afn double %39, %45
  %47 = call reassoc nsz arcp contract afn double @llvm.fabs.f64(double %46)
  %48 = load double, ptr %9, align 8, !tbaa !45
  %49 = load ptr, ptr %7, align 8, !tbaa !24
  %50 = getelementptr inbounds nuw %struct._GtkDarktableGradientSlider, ptr %49, i32 0, i32 5
  %51 = load i32, ptr %8, align 4, !tbaa !13
  %52 = sext i32 %51 to i64
  %53 = getelementptr inbounds [10 x double], ptr %50, i64 0, i64 %52
  %54 = load double, ptr %53, align 8, !tbaa !45
  %55 = fsub reassoc nsz arcp contract afn double %48, %54
  %56 = call reassoc nsz arcp contract afn double @llvm.fabs.f64(double %55)
  %57 = fcmp reassoc nsz arcp contract afn olt double %47, %56
  br i1 %57, label %58, label %60

58:                                               ; preds = %38
  %59 = load i32, ptr %10, align 4, !tbaa !13
  store i32 %59, ptr %8, align 4, !tbaa !13
  br label %60

60:                                               ; preds = %58, %38
  br label %61

61:                                               ; preds = %60, %23
  br label %62

62:                                               ; preds = %61
  %63 = load i32, ptr %10, align 4, !tbaa !13
  %64 = add nsw i32 %63, 1
  store i32 %64, ptr %10, align 4, !tbaa !13
  br label %16

65:                                               ; preds = %22
  %66 = load i32, ptr %8, align 4, !tbaa !13
  call void @llvm.lifetime.end.p0(i64 8, ptr %9) #11
  call void @llvm.lifetime.end.p0(i64 4, ptr %8) #11
  call void @llvm.lifetime.end.p0(i64 8, ptr %7) #11
  ret i32 %66
}