; Function Attrs: nounwind uwtable
define internal fastcc i32 @_get_active_marker_internal(ptr noundef %0, double noundef %1, i32 noundef range(i32 0, 2) %2) unnamed_addr #0 {
  %4 = load atomic i64, ptr @_gradient_slider_get_type.static_g_define_type_id seq_cst, align 8
  %.not.i.i.i = icmp eq i64 %4, 0
  br i1 %.not.i.i.i, label %5, label %DTGTK_GRADIENT_SLIDER.exit

5:                                                ; preds = %3
  %6 = tail call i32 @g_once_init_enter(ptr noundef nonnull @_gradient_slider_get_type.static_g_define_type_id) #14
  %.not4.i.i.i = icmp eq i32 %6, 0
  br i1 %.not4.i.i.i, label %DTGTK_GRADIENT_SLIDER.exit, label %7

7:                                                ; preds = %5
  %8 = tail call fastcc i64 @_gradient_slider_get_type_once()
  tail call void @g_once_init_leave(ptr noundef nonnull @_gradient_slider_get_type.static_g_define_type_id, i64 noundef %8) #14
  br label %DTGTK_GRADIENT_SLIDER.exit

DTGTK_GRADIENT_SLIDER.exit:                       ; preds = %3, %5, %7
  %9 = load i64, ptr @_gradient_slider_get_type.static_g_define_type_id, align 8, !tbaa !6
  %10 = tail call ptr @g_type_check_instance_cast(ptr noundef %0, i64 noundef %9) #14
  %11 = tail call reassoc nsz arcp contract afn fastcc double @_get_position_from_screen(ptr noundef %0, double noundef %1)
  %12 = getelementptr inbounds nuw i8, ptr %10, i64 56
  %13 = load i32, ptr %12, align 8, !tbaa !16
  %14 = icmp sgt i32 %13, 0
  br i1 %14, label %.lr.ph, label %._crit_edge

.lr.ph:                                           ; preds = %DTGTK_GRADIENT_SLIDER.exit
  %15 = getelementptr inbounds nuw i8, ptr %10, i64 224
  %.not.i = icmp eq i32 %2, 0
  %.0.in.in.in.v.i = select i1 %.not.i, i32 -4, i32 -2
  %16 = getelementptr inbounds nuw i8, ptr %10, i64 64
  %wide.trip.count = zext nneg i32 %13 to i64
  br label %17

._crit_edge:                                      ; preds = %34, %DTGTK_GRADIENT_SLIDER.exit
  %.018.lcssa = phi i32 [ -1, %DTGTK_GRADIENT_SLIDER.exit ], [ %.2, %34 ]
  ret i32 %.018.lcssa

17:                                               ; preds = %.lr.ph, %34
  %indvars.iv = phi i64 [ 0, %.lr.ph ], [ %indvars.iv.next, %34 ]
  %.01819 = phi i32 [ -1, %.lr.ph ], [ %.2, %34 ]
  %18 = getelementptr inbounds nuw [10 x i32], ptr %15, i64 0, i64 %indvars.iv
  %19 = load i32, ptr %18, align 4, !tbaa !44
  %.0.in.in.in.i = add i32 %19, %.0.in.in.in.v.i
  %.0.in.in.i = and i32 %.0.in.in.in.i, -10
  %.0.in.i.not = icmp eq i32 %.0.in.in.i, 0
  br i1 %.0.in.i.not, label %34, label %20

20:                                               ; preds = %17
  %21 = icmp slt i32 %.01819, 0
  %22 = trunc nuw nsw i64 %indvars.iv to i32
  %spec.select = select i1 %21, i32 %22, i32 %.01819
  %23 = getelementptr inbounds nuw [10 x double], ptr %16, i64 0, i64 %indvars.iv
  %24 = load double, ptr %23, align 8, !tbaa !37
  %25 = fsub reassoc nsz arcp contract afn double %11, %24
  %26 = tail call reassoc nsz arcp contract afn double @llvm.fabs.f64(double %25)
  %27 = zext nneg i32 %spec.select to i64
  %28 = getelementptr inbounds nuw [10 x double], ptr %16, i64 0, i64 %27
  %29 = load double, ptr %28, align 8, !tbaa !37
  %30 = fsub reassoc nsz arcp contract afn double %11, %29
  %31 = tail call reassoc nsz arcp contract afn double @llvm.fabs.f64(double %30)
  %32 = fcmp reassoc nsz arcp contract afn olt double %26, %31
  br i1 %32, label %33, label %34

33:                                               ; preds = %20
  br label %34

34:                                               ; preds = %17, %33, %20
  %.2 = phi i32 [ %22, %33 ], [ %spec.select, %20 ], [ %.01819, %17 ]
  %indvars.iv.next = add nuw nsw i64 %indvars.iv, 1
  %exitcond.not = icmp eq i64 %indvars.iv.next, %wide.trip.count
  br i1 %exitcond.not, label %._crit_edge, label %17
}